; Function Attrs: mustprogress uwtable
define internal void @"_ZZ14cmUVStreamReadIZN7cmCTest7RunTestERKSt6vectorINSt7__cxx1112basic_stringIcSt11char_traitsIcESaIcEEESaIS7_EEPS7_PiPSoNSt6chrono8durationIdSt5ratioILl1ELl1EEEEPS9_N15cmProcessOutput8EncodingEE3$_0ZNS0_7RunTestESB_SC_SD_SE_SJ_SK_SM_E3$_1ESt10unique_ptrI20cmUVStreamReadHandleSt14default_deleteISQ_EEP11uv_stream_sT_T0_ENUlP11uv_handle_smP8uv_buf_tE_8__invokeESZ_mS11_"(ptr nocapture noundef readonly %0, i64 noundef %1, ptr nocapture noundef writeonly %2) #3 align 2 {
  %.val = load ptr, ptr %0, align 8
  tail call void @_ZNSt6vectorIcSaIcEE6resizeEm(ptr noundef nonnull align 8 dereferenceable(24) %.val, i64 noundef %1)
  %4 = load ptr, ptr %.val, align 8
  store ptr %4, ptr %2, align 8
  %5 = getelementptr inbounds i8, ptr %2, i64 8
  store i64 %1, ptr %5, align 8
  ret void
}